Certificate:
    Data:
        Version: 3 (0x2)
        Serial Number: 1 (0x1)
        Signature Algorithm: sha256WithRSAEncryption
        Issuer: CN=devcert
        Validity
            Not Before: Jan  7 12:46:05 2024 GMT
            Not After : Apr 11 12:46:05 2026 GMT
        Subject: CN=localhost
        Subject Public Key Info:
            Public Key Algorithm: rsaEncryption
                Public-Key: (2048 bit)
                Modulus:
                    00:a8:49:38:6b:27:70:2e:d7:f0:cd:36:62:ea:fc:
                    bf:a9:c5:b0:35:c9:b9:ac:9f:41:9a:f1:ed:fb:12:
                    bb:9b:c9:bd:fb:49:9f:0b:5c:c3:41:e8:81:56:c4:
                    cb:e6:4a:ab:28:78:c4:dc:6b:01:ea:b9:76:97:96:
                    2c:28:8b:a2:0a:d6:47:5d:7a:6f:45:8c:8b:d5:d5:
                    4d:a4:09:4a:b5:89:e4:2f:cb:0b:fe:14:65:23:e2:
                    99:d5:0f:df:65:dc:68:7e:05:c8:51:b6:5b:9e:1e:
                    82:cd:96:14:e9:8b:0c:14:fe:59:5f:06:25:d1:d7:
                    06:f0:aa:f9:32:aa:98:5e:e9:2b:ad:e7:cf:38:84:
                    6d:46:00:d5:cd:db:d7:e0:f9:1f:cf:92:df:e5:71:
                    97:9f:21:a6:28:57:bc:78:9c:01:31:32:52:7e:9c:
                    18:36:8c:1f:5c:80:6d:5f:31:29:b2:1d:00:91:af:
                    f2:e3:97:28:d6:44:47:07:a3:a1:53:2d:82:54:ae:
                    ce:65:b4:a1:30:33:f9:2d:f5:a9:9e:7b:1b:c8:0a:
                    d9:a3:2b:6f:11:c1:9b:b4:50:d5:81:ce:fd:64:b9:
                    b3:d7:99:0a:df:a2:f7:f5:e9:a0:f4:37:7c:69:0a:
                    61:cb:34:6f:90:cb:c7:fb:2c:26:6b:09:ae:f0:78:
                    2e:ed
                Exponent: 65537 (0x10001)
        X509v3 extensions:
            X509v3 Basic Constraints: critical
                CA:FALSE
            X509v3 Subject Key Identifier: 
                8D:C7:E0:2F:84:0B:86:0C:D6:7F:F7:D2:BB:78:90:1C:65:79:30:6C
            X509v3 Authority Key Identifier: 
                keyid:E3:17:F3:BE:80:21:4E:99:B4:B3:7B:E5:99:EC:8E:03:03:E4:C0:03
                DirName:/CN=devcert
                serial:19:04:B4:4E:38:23:7E:67:DD:2F:15:DD:64:AA:AE:14:A5:86:7A:2C
            X509v3 Key Usage: critical
                Digital Signature, Key Encipherment
            X509v3 Extended Key Usage: 
                TLS Web Server Authentication
            X509v3 Subject Alternative Name: 
                DNS:localhost, DNS:*.localhost
    Signature Algorithm: sha256WithRSAEncryption
    Signature Value:
        a2:87:5b:21:fa:59:49:14:d6:db:82:c0:da:6e:c3:fa:d0:ef:
        3f:7b:9b:96:f6:f9:23:41:6d:8c:77:9b:0f:9c:20:27:f7:37:
        c0:b4:67:0e:1d:3c:b2:57:48:af:f2:4d:08:f1:93:79:fd:18:
        16:89:80:64:56:6c:19:b9:9a:64:e4:17:6c:f7:7f:ad:1a:02:
        75:61:4b:84:6d:04:cd:41:1d:7b:04:80:b5:4d:08:cf:5b:e2:
        75:90:64:3f:83:b0:04:8c:b2:1a:52:47:b4:c3:1b:6b:6e:30:
        86:ea:88:95:62:ae:77:94:db:0d:e8:c3:5f:e2:c6:10:58:09:
        24:ce:63:eb:53:09:ea:23:4c:83:eb:6b:8e:53:f8:87:3e:18:
        68:39:e2:3a:e2:ba:73:e2:e9:a3:ab:0e:00:66:06:5a:82:bc:
        8d:53:e6:d5:70:a2:82:46:67:c2:9e:11:f4:c8:e7:66:c6:e7:
        e1:6a:c9:45:4a:b2:69:e2:1c:f3:ca:aa:90:e5:93:04:06:0c:
        5c:ad:88:df:33:bc:7e:61:3f:2d:7a:24:98:b2:f0:45:a7:5a:
        cf:7d:e3:ef:61:e3:88:dd:9b:2e:05:ec:51:0f:0c:0d:b2:0f:
        32:cc:4b:6d:d6:bd:3e:45:1b:99:51:5a:01:d3:1c:bc:9f:74:
        a9:fb:48:86
-----BEGIN CERTIFICATE-----
MIIDaTCCAlGgAwIBAgIBATANBgkqhkiG9w0BAQsFADASMRAwDgYDVQQDDAdkZXZj
ZXJ0MB4XDTI0MDEwNzEyNDYwNVoXDTI2MDQxMTEyNDYwNVowFDESMBAGA1UEAwwJ
bG9jYWxob3N0MIIBIjANBgkqhkiG9w0BAQEFAAOCAQ8AMIIBCgKCAQEAqEk4aydw
LtfwzTZi6vy/qcWwNcm5rJ9BmvHt+xK7m8m9+0mfC1zDQeiBVsTL5kqrKHjE3GsB
6rl2l5YsKIuiCtZHXXpvRYyL1dVNpAlKtYnkL8sL/hRlI+KZ1Q/fZdxofgXIUbZb
nh6CzZYU6YsMFP5ZXwYl0dcG8Kr5MqqYXukrrefPOIRtRgDVzdvX4Pkfz5Lf5XGX
nyGmKFe8eJwBMTJSfpwYNowfXIBtXzEpsh0Aka/y45co1kRHB6OhUy2CVK7OZbSh
MDP5LfWpnnsbyArZoytvEcGbtFDVgc79ZLmz15kK36L39emg9Dd8aQphyzRvkMvH
+ywmawmu8Hgu7QIDAQABo4HHMIHEMAwGA1UdEwEB/wQCMAAwHQYDVR0OBBYEFI3H
4C+EC4YM1n/30rt4kBxleTBsME0GA1UdIwRGMESAFOMX876AIU6ZtLN75ZnsjgMD
5MADoRakFDASMRAwDgYDVQQDDAdkZXZjZXJ0ghQZBLROOCN+Z90vFd1kqq4UpYZ6
LDAOBgNVHQ8BAf8EBAMCBaAwEwYDVR0lBAwwCgYIKwYBBQUHAwEwIQYDVR0RBBow
GIIJbG9jYWxob3N0ggsqLmxvY2FsaG9zdDANBgkqhkiG9w0BAQsFAAOCAQEAoodb
IfpZSRTW24LA2m7D+tDvP3ublvb5I0FtjHebD5wgJ/c3wLRnDh08sldIr/JNCPGT
ef0YFomAZFZsGbmaZOQXbPd/rRoCdWFLhG0EzUEdewSAtU0Iz1vidZBkP4OwBIyy
GlJHtMMba24whuqIlWKud5TbDejDX+LGEFgJJM5j61MJ6iNMg+trjlP4hz4YaDni
OuK6c+Lpo6sOAGYGWoK8jVPm1XCigkZnwp4R9MjnZsbn4WrJRUqyaeIc88qqkOWT
BAYMXK2I3zO8fmE/LXokmLLwRadaz33j72HjiN2bLgXsUQ8MDbIPMsxLbda9PkUb
mVFaAdMcvJ90qftIhg==
-----END CERTIFICATE-----
